; ModuleID = '58/55.c'
source_filename = "58/55.c"
target datalayout = "e-m:e-p270:32:32-p271:32:32-p272:64:64-i64:64-f80:128-n8:16:32:64-S128"
target triple = "x86_64-pc-linux-gnu"

@.str = private unnamed_addr constant [4 x i8] c"%d\0A\00", align 1
@.str.1 = private unnamed_addr constant [3 x i8] c"1\0A\00", align 1
@.str.2 = private unnamed_addr constant [3 x i8] c"0\0A\00", align 1

; Function Attrs: noinline nounwind uwtable
define dso_local i32 @main() #0 {
  %1 = alloca i32, align 4
  %2 = alloca i32, align 4
  %3 = alloca i32, align 4
  %4 = alloca i32, align 4
  %5 = alloca i32, align 4
  %6 = alloca i32, align 4
  %7 = alloca i8**, align 8
  %8 = alloca [100 x i8*], align 16
  store i32 0, i32* %1, align 4
  store i32 0, i32* %6, align 4
  %9 = call i32 (i8*, ...) @__isoc99_scanf(i8* getelementptr inbounds ([4 x i8], [4 x i8]* @.str, i64 0, i64 0), i32* %2)
  store i32 0, i32* %3, align 4
  br label %10

10:                                               ; preds = %19, %0
  %11 = load i32, i32* %3, align 4
  %12 = load i32, i32* %2, align 4
  %13 = icmp slt i32 %11, %12
  br i1 %13, label %14, label %22

14:                                               ; preds = %10
  %15 = call noalias i8* @malloc(i64 80) #4
  %16 = load i32, i32* %3, align 4
  %17 = sext i32 %16 to i64
  %18 = getelementptr inbounds [100 x i8*], [100 x i8*]* %8, i64 0, i64 %17
  store i8* %15, i8** %18, align 8
  br label %19

19:                                               ; preds = %14
  %20 = load i32, i32* %3, align 4
  %21 = add nsw i32 %20, 1
  store i32 %21, i32* %3, align 4
  br label %10

22:                                               ; preds = %10
  %23 = getelementptr inbounds [100 x i8*], [100 x i8*]* %8, i64 0, i64 0
  store i8** %23, i8*** %7, align 8
  store i32 0, i32* %3, align 4
  br label %24

24:                                               ; preds = %200, %22
  %25 = load i32, i32* %3, align 4
  %26 = load i32, i32* %2, align 4
  %27 = icmp slt i32 %25, %26
  br i1 %27, label %28, label %203

28:                                               ; preds = %24
  %29 = load i8**, i8*** %7, align 8
  %30 = load i32, i32* %3, align 4
  %31 = sext i32 %30 to i64
  %32 = getelementptr inbounds i8*, i8** %29, i64 %31
  %33 = load i8*, i8** %32, align 8
  %34 = call i32 (i8*, ...) bitcast (i32 (...)* @gets to i32 (i8*, ...)*)(i8* %33)
  %35 = load i8**, i8*** %7, align 8
  %36 = load i32, i32* %3, align 4
  %37 = sext i32 %36 to i64
  %38 = getelementptr inbounds i8*, i8** %35, i64 %37
  %39 = load i8*, i8** %38, align 8
  %40 = call i64 @strlen(i8* %39) #5
  %41 = trunc i64 %40 to i32
  store i32 %41, i32* %5, align 4
  store i32 0, i32* %4, align 4
  br label %42

42:                                               ; preds = %188, %28
  %43 = load i32, i32* %4, align 4
  %44 = load i32, i32* %5, align 4
  %45 = icmp slt i32 %43, %44
  br i1 %45, label %46, label %191

46:                                               ; preds = %42
  %47 = load i32, i32* %4, align 4
  %48 = icmp eq i32 %47, 0
  br i1 %48, label %49, label %97

49:                                               ; preds = %46
  %50 = load i8**, i8*** %7, align 8
  %51 = load i32, i32* %3, align 4
  %52 = sext i32 %51 to i64
  %53 = getelementptr inbounds i8*, i8** %50, i64 %52
  %54 = load i8*, i8** %53, align 8
  %55 = load i8, i8* %54, align 1
  %56 = sext i8 %55 to i32
  %57 = icmp eq i32 %56, 95
  br i1 %57, label %94, label %58

58:                                               ; preds = %49
  %59 = load i8**, i8*** %7, align 8
  %60 = load i32, i32* %3, align 4
  %61 = sext i32 %60 to i64
  %62 = getelementptr inbounds i8*, i8** %59, i64 %61
  %63 = load i8*, i8** %62, align 8
  %64 = load i8, i8* %63, align 1
  %65 = sext i8 %64 to i32
  %66 = icmp sge i32 %65, 65
  br i1 %66, label %67, label %76

67:                                               ; preds = %58
  %68 = load i8**, i8*** %7, align 8
  %69 = load i32, i32* %3, align 4
  %70 = sext i32 %69 to i64
  %71 = getelementptr inbounds i8*, i8** %68, i64 %70
  %72 = load i8*, i8** %71, align 8
  %73 = load i8, i8* %72, align 1
  %74 = sext i8 %73 to i32
  %75 = icmp sle i32 %74, 90
  br i1 %75, label %94, label %76

76:                                               ; preds = %67, %58
  %77 = load i8**, i8*** %7, align 8
  %78 = load i32, i32* %3, align 4
  %79 = sext i32 %78 to i64
  %80 = getelementptr inbounds i8*, i8** %77, i64 %79
  %81 = load i8*, i8** %80, align 8
  %82 = load i8, i8* %81, align 1
  %83 = sext i8 %82 to i32
  %84 = icmp sge i32 %83, 97
  br i1 %84, label %85, label %97

85:                                               ; preds = %76
  %86 = load i8**, i8*** %7, align 8
  %87 = load i32, i32* %3, align 4
  %88 = sext i32 %87 to i64
  %89 = getelementptr inbounds i8*, i8** %86, i64 %88
  %90 = load i8*, i8** %89, align 8
  %91 = load i8, i8* %90, align 1
  %92 = sext i8 %91 to i32
  %93 = icmp sle i32 %92, 122
  br i1 %93, label %94, label %97

94:                                               ; preds = %85, %67, %49
  %95 = load i32, i32* %6, align 4
  %96 = add nsw i32 %95, 1
  store i32 %96, i32* %6, align 4
  br label %97

97:                                               ; preds = %94, %85, %76, %46
  %98 = load i32, i32* %4, align 4
  %99 = icmp sgt i32 %98, 0
  br i1 %99, label %100, label %187

100:                                              ; preds = %97
  %101 = load i8**, i8*** %7, align 8
  %102 = load i32, i32* %3, align 4
  %103 = sext i32 %102 to i64
  %104 = getelementptr inbounds i8*, i8** %101, i64 %103
  %105 = load i8*, i8** %104, align 8
  %106 = load i32, i32* %4, align 4
  %107 = sext i32 %106 to i64
  %108 = getelementptr inbounds i8, i8* %105, i64 %107
  %109 = load i8, i8* %108, align 1
  %110 = sext i8 %109 to i32
  %111 = icmp sge i32 %110, 48
  br i1 %111, label %112, label %124

112:                                              ; preds = %100
  %113 = load i8**, i8*** %7, align 8
  %114 = load i32, i32* %3, align 4
  %115 = sext i32 %114 to i64
  %116 = getelementptr inbounds i8*, i8** %113, i64 %115
  %117 = load i8*, i8** %116, align 8
  %118 = load i32, i32* %4, align 4
  %119 = sext i32 %118 to i64
  %120 = getelementptr inbounds i8, i8* %117, i64 %119
  %121 = load i8, i8* %120, align 1
  %122 = sext i8 %121 to i32
  %123 = icmp sle i32 %122, 57
  br i1 %123, label %184, label %124

124:                                              ; preds = %112, %100
  %125 = load i8**, i8*** %7, align 8
  %126 = load i32, i32* %3, align 4
  %127 = sext i32 %126 to i64
  %128 = getelementptr inbounds i8*, i8** %125, i64 %127
  %129 = load i8*, i8** %128, align 8
  %130 = load i32, i32* %4, align 4
  %131 = sext i32 %130 to i64
  %132 = getelementptr inbounds i8, i8* %129, i64 %131
  %133 = load i8, i8* %132, align 1
  %134 = sext i8 %133 to i32
  %135 = icmp sge i32 %134, 65
  br i1 %135, label %136, label %148

136:                                              ; preds = %124
  %137 = load i8**, i8*** %7, align 8
  %138 = load i32, i32* %3, align 4
  %139 = sext i32 %138 to i64
  %140 = getelementptr inbounds i8*, i8** %137, i64 %139
  %141 = load i8*, i8** %140, align 8
  %142 = load i32, i32* %4, align 4
  %143 = sext i32 %142 to i64
  %144 = getelementptr inbounds i8, i8* %141, i64 %143
  %145 = load i8, i8* %144, align 1
  %146 = sext i8 %145 to i32
  %147 = icmp sle i32 %146, 90
  br i1 %147, label %184, label %148

148:                                              ; preds = %136, %124
  %149 = load i8**, i8*** %7, align 8
  %150 = load i32, i32* %3, align 4
  %151 = sext i32 %150 to i64
  %152 = getelementptr inbounds i8*, i8** %149, i64 %151
  %153 = load i8*, i8** %152, align 8
  %154 = load i32, i32* %4, align 4
  %155 = sext i32 %154 to i64
  %156 = getelementptr inbounds i8, i8* %153, i64 %155
  %157 = load i8, i8* %156, align 1
  %158 = sext i8 %157 to i32
  %159 = icmp sge i32 %158, 97
  br i1 %159, label %160, label %172

160:                                              ; preds = %148
  %161 = load i8**, i8*** %7, align 8
  %162 = load i32, i32* %3, align 4
  %163 = sext i32 %162 to i64
  %164 = getelementptr inbounds i8*, i8** %161, i64 %163
  %165 = load i8*, i8** %164, align 8
  %166 = load i32, i32* %4, align 4
  %167 = sext i32 %166 to i64
  %168 = getelementptr inbounds i8, i8* %165, i64 %167
  %169 = load i8, i8* %168, align 1
  %170 = sext i8 %169 to i32
  %171 = icmp sle i32 %170, 122
  br i1 %171, label %184, label %172

172:                                              ; preds = %160, %148
  %173 = load i8**, i8*** %7, align 8
  %174 = load i32, i32* %3, align 4
  %175 = sext i32 %174 to i64
  %176 = getelementptr inbounds i8*, i8** %173, i64 %175
  %177 = load i8*, i8** %176, align 8
  %178 = load i32, i32* %4, align 4
  %179 = sext i32 %178 to i64
  %180 = getelementptr inbounds i8, i8* %177, i64 %179
  %181 = load i8, i8* %180, align 1
  %182 = sext i8 %181 to i32
  %183 = icmp eq i32 %182, 95
  br i1 %183, label %184, label %187

184:                                              ; preds = %172, %160, %136, %112
  %185 = load i32, i32* %6, align 4
  %186 = add nsw i32 %185, 1
  store i32 %186, i32* %6, align 4
  br label %187

187:                                              ; preds = %184, %172, %97
  br label %188

188:                                              ; preds = %187
  %189 = load i32, i32* %4, align 4
  %190 = add nsw i32 %189, 1
  store i32 %190, i32* %4, align 4
  br label %42

191:                                              ; preds = %42
  %192 = load i32, i32* %6, align 4
  %193 = load i32, i32* %5, align 4
  %194 = icmp eq i32 %192, %193
  br i1 %194, label %195, label %197

195:                                              ; preds = %191
  %196 = call i32 (i8*, ...) @printf(i8* getelementptr inbounds ([3 x i8], [3 x i8]* @.str.1, i64 0, i64 0))
  br label %199

197:                                              ; preds = %191
  %198 = call i32 (i8*, ...) @printf(i8* getelementptr inbounds ([3 x i8], [3 x i8]* @.str.2, i64 0, i64 0))
  br label %199

199:                                              ; preds = %197, %195
  store i32 0, i32* %6, align 4
  br label %200

200:                                              ; preds = %199
  %201 = load i32, i32* %3, align 4
  %202 = add nsw i32 %201, 1
  store i32 %202, i32* %3, align 4
  br label %24

203:                                              ; preds = %24
  %204 = load i32, i32* %1, align 4
  ret i32 %204
}

declare dso_local i32 @__isoc99_scanf(i8*, ...) #1

; Function Attrs: nounwind
declare dso_local noalias i8* @malloc(i64) #2

declare dso_local i32 @gets(...) #1

; Function Attrs: nounwind readonly
declare dso_local i64 @strlen(i8*) #3

declare dso_local i32 @printf(i8*, ...) #1


!llvm.module.flags = !{!0}
!llvm.ident = !{!1}

!0 = !{i32 1, !"wchar_size", i32 4}
!1 = !{!"clang version 10.0.0-4ubuntu1 "}
